target datalayout = "e-m:e-p270:32:32-p271:32:32-p272:64:64-i64:64-i128:128-f80:128-n8:16:32:64-S128"
target triple = "x86_64-pc-linux-gnu"

%struct.redisObject = type { i32, i32, ptr }
%struct.redisDb = type { ptr, ptr, ptr, ptr, ptr, ptr, ptr, i32, i64, i64, ptr }

@.str = private unnamed_addr constant [9 x i8] c"defrag.c\00", align 1
@.str.17 = private unnamed_addr constant [24 x i8] c"obj->type == OBJ_MODULE\00", align 1

; Function Attrs: nounwind uwtable
define dso_local void @defragLater(ptr noundef %0, ptr noundef %1) #0 {
  %3 = alloca ptr, align 8
  %4 = alloca ptr, align 8
  %5 = alloca ptr, align 8
  store ptr %0, ptr %3, align 8, !tbaa !108
  store ptr %1, ptr %4, align 8, !tbaa !75
  call void @llvm.lifetime.start.p0(i64 8, ptr %5) #10
  %6 = load ptr, ptr %4, align 8, !tbaa !75
  %7 = call ptr @dictGetKey(ptr noundef %6)
  %8 = call ptr @sdsdup(ptr noundef %7)
  store ptr %8, ptr %5, align 8, !tbaa !41
  %9 = load ptr, ptr %3, align 8, !tbaa !108
  %10 = getelementptr inbounds nuw %struct.redisDb, ptr %9, i32 0, i32 10
  %11 = load ptr, ptr %10, align 8, !tbaa !109
  %12 = load ptr, ptr %5, align 8, !tbaa !41
  %13 = call ptr @listAddNodeTail(ptr noundef %11, ptr noundef %12)
  call void @llvm.lifetime.end.p0(i64 8, ptr %5) #10
  ret void
}

; Function Attrs: nounwind uwtable
define dso_local void @defragModule(ptr noundef %0, ptr noundef %1) #0 {
  %3 = alloca ptr, align 8
  %4 = alloca ptr, align 8
  %5 = alloca ptr, align 8
  %6 = alloca %struct.redisObject, align 8
  store ptr %0, ptr %3, align 8, !tbaa !108
  store ptr %1, ptr %4, align 8, !tbaa !75
  call void @llvm.lifetime.start.p0(i64 8, ptr %5) #10
  %7 = load ptr, ptr %4, align 8, !tbaa !75
  %8 = call ptr @dictGetVal(ptr noundef %7)
  store ptr %8, ptr %5, align 8, !tbaa !42
  %9 = load ptr, ptr %5, align 8, !tbaa !42
  %10 = load i32, ptr %9, align 8
  %11 = and i32 %10, 15
  %12 = icmp eq i32 %11, 5
  %13 = xor i1 %12, true
  %14 = xor i1 %13, true
  %15 = zext i1 %14 to i32
  %16 = sext i32 %15 to i64
  %17 = call i64 @llvm.expect.i64(i64 %16, i64 1)
  %18 = icmp ne i64 %17, 0
  br i1 %18, label %19, label %20

19:                                               ; preds = %2
  br label %22

20:                                               ; preds = %2
  call void @_serverAssert(ptr noundef @.str.17, ptr noundef @.str, i32 noundef 732)
  call void @abort() #11
  unreachable

21:                                               ; No predecessors!
  br label %22

22:                                               ; preds = %21, %19
  call void @llvm.lifetime.start.p0(i64 16, ptr %6) #10
  br label %23

23:                                               ; preds = %22
  %24 = getelementptr inbounds nuw %struct.redisObject, ptr %6, i32 0, i32 1
  store i32 2147483646, ptr %24, align 4, !tbaa !45
  %25 = load i32, ptr %6, align 8
  %26 = and i32 %25, -16
  %27 = or i32 %26, 0
  store i32 %27, ptr %6, align 8
  %28 = load i32, ptr %6, align 8
  %29 = and i32 %28, -241
  %30 = or i32 %29, 0
  store i32 %30, ptr %6, align 8
  %31 = load ptr, ptr %4, align 8, !tbaa !75
  %32 = call ptr @dictGetKey(ptr noundef %31)
  %33 = getelementptr inbounds nuw %struct.redisObject, ptr %6, i32 0, i32 2
  store ptr %32, ptr %33, align 8, !tbaa !47
  br label %34

34:                                               ; preds = %23
  br label %35

35:                                               ; preds = %34
  %36 = load ptr, ptr %5, align 8, !tbaa !42
  %37 = load ptr, ptr %3, align 8, !tbaa !108
  %38 = getelementptr inbounds nuw %struct.redisDb, ptr %37, i32 0, i32 7
  %39 = load i32, ptr %38, align 8, !tbaa !163
  %40 = call i32 @moduleDefragValue(ptr noundef %6, ptr noundef %36, i32 noundef %39)
  %41 = icmp ne i32 %40, 0
  br i1 %41, label %45, label %42

42:                                               ; preds = %35
  %43 = load ptr, ptr %3, align 8, !tbaa !108
  %44 = load ptr, ptr %4, align 8, !tbaa !75
  call void @defragLater(ptr noundef %43, ptr noundef %44)
  br label %45

45:                                               ; preds = %42, %35
  call void @llvm.lifetime.end.p0(i64 16, ptr %6) #10
  call void @llvm.lifetime.end.p0(i64 8, ptr %5) #10
  ret void
}