; Function Attrs: nounwind uwtable
define dso_local void @defragModule(ptr noundef readonly captures(none) %0, ptr noundef %1) local_unnamed_addr #0 {
  %3 = alloca %struct.redisObject, align 8
  %4 = tail call ptr @dictGetVal(ptr noundef %1) #10
  %5 = load i32, ptr %4, align 8
  %6 = and i32 %5, 15
  %7 = icmp eq i32 %6, 5
  br i1 %7, label %9, label %8, !prof !58

8:                                                ; preds = %2
  tail call void @_serverAssert(ptr noundef nonnull @.str.17, ptr noundef nonnull @.str, i32 noundef 732) #10
  tail call void @abort() #11
  unreachable

9:                                                ; preds = %2
  call void @llvm.lifetime.start.p0(i64 16, ptr nonnull %3) #10
  %10 = getelementptr inbounds nuw i8, ptr %3, i64 4
  store i32 2147483646, ptr %10, align 4, !tbaa !39
  store i32 0, ptr %3, align 8
  %11 = tail call ptr @dictGetKey(ptr noundef %1) #10
  %12 = getelementptr inbounds nuw i8, ptr %3, i64 8
  store ptr %11, ptr %12, align 8, !tbaa !41
  %13 = getelementptr inbounds nuw i8, ptr %0, i64 56
  %14 = load i32, ptr %13, align 8, !tbaa !132
  %15 = call i32 @moduleDefragValue(ptr noundef nonnull %3, ptr noundef nonnull %4, i32 noundef %14) #10
  %.not = icmp eq i32 %15, 0
  br i1 %.not, label %16, label %22

16:                                               ; preds = %9
  %17 = call ptr @dictGetKey(ptr noundef %1) #10
  %18 = call ptr @sdsdup(ptr noundef %17) #10
  %19 = getelementptr inbounds nuw i8, ptr %0, i64 80
  %20 = load ptr, ptr %19, align 8, !tbaa !90
  %21 = call ptr @listAddNodeTail(ptr noundef %20, ptr noundef %18) #10
  br label %22

22:                                               ; preds = %16, %9
  call void @llvm.lifetime.end.p0(i64 16, ptr nonnull %3) #10
  ret void
}